target datalayout = "e-m:e-p270:32:32-p271:32:32-p272:64:64-i64:64-i128:128-f80:128-n8:16:32:64-S128"
target triple = "x86_64-pc-linux-gnu"

%"struct.cv::gimpl::ConstValue" = type { %"struct.cv::GRunArg" }
%"struct.cv::GRunArg" = type { %"class.cv::util::variant.56", %"class.std::unordered_map" }
%"class.cv::util::variant.56" = type { i64, [1 x %"union.std::aligned_storage<96, 8>::type"] }
%"union.std::aligned_storage<96, 8>::type" = type { [96 x i8] }
%"class.std::unordered_map" = type { %"class.std::_Hashtable" }
%"class.std::_Hashtable" = type { ptr, i64, %"struct.std::__detail::_Hash_node_base", i64, %"struct.std::__detail::_Prime_rehash_policy", ptr }
%"struct.std::__detail::_Hash_node_base" = type { ptr }
%"struct.std::__detail::_Prime_rehash_policy" = type { float, i64 }

; Function Attrs: mustprogress nounwind uwtable
define linkonce_odr hidden noundef i64 @_ZNK2cv4util7variantIJNS_4UMatENS_4RMatESt10shared_ptrINS_4gapi3wip13IStreamSourceEENS_3MatENS_7Scalar_IdEENS_6detail9VectorRefENSC_9OpaqueRefENS_10MediaFrameEEE5indexEv(ptr noundef nonnull align 8 dereferenceable(104) %0) #9 comdat align 2 {
  %2 = alloca ptr, align 8
  store ptr %0, ptr %2, align 8, !tbaa !256
  %3 = load ptr, ptr %2, align 8
  %4 = getelementptr inbounds nuw %"class.cv::util::variant.56", ptr %3, i32 0, i32 0
  %5 = load i64, ptr %4, align 8, !tbaa !2227
  ret i64 %5
}

; Function Attrs: mustprogress uwtable
define linkonce_odr hidden noundef nonnull align 8 dereferenceable(8) ptr @_ZN2cv4gapi4s11nlsIJNS_4UMatENS_4RMatESt10shared_ptrINS0_3wip13IStreamSourceEENS_3MatENS_7Scalar_IdEENS_6detail9VectorRefENSC_9OpaqueRefENS_10MediaFrameEEEERNS1_8IOStreamESH_RKNS_4util7variantIJDpT_EEE(ptr noundef nonnull align 8 dereferenceable(8) %0, ptr noundef nonnull align 8 dereferenceable(104) %1) #4 comdat {
  %3 = alloca ptr, align 8
  %4 = alloca ptr, align 8
  store ptr %0, ptr %3, align 8, !tbaa !3
  store ptr %1, ptr %4, align 8, !tbaa !256
  %5 = load ptr, ptr %3, align 8, !tbaa !3
  %6 = load ptr, ptr %4, align 8, !tbaa !256
  %7 = call noundef i64 @_ZNK2cv4util7variantIJNS_4UMatENS_4RMatESt10shared_ptrINS_4gapi3wip13IStreamSourceEENS_3MatENS_7Scalar_IdEENS_6detail9VectorRefENSC_9OpaqueRefENS_10MediaFrameEEE5indexEv(ptr noundef nonnull align 8 dereferenceable(104) %6) #3
  %8 = trunc i64 %7 to i32
  %9 = load ptr, ptr %5, align 8, !tbaa !13
  %10 = getelementptr inbounds ptr, ptr %9, i64 8
  %11 = load ptr, ptr %10, align 8
  %12 = call noundef nonnull align 8 dereferenceable(8) ptr %11(ptr noundef nonnull align 8 dereferenceable(8) %5, i32 noundef %8)
  %13 = load ptr, ptr %3, align 8, !tbaa !3
  %14 = load ptr, ptr %4, align 8, !tbaa !256
  %15 = load ptr, ptr %4, align 8, !tbaa !256
  %16 = call noundef i64 @_ZNK2cv4util7variantIJNS_4UMatENS_4RMatESt10shared_ptrINS_4gapi3wip13IStreamSourceEENS_3MatENS_7Scalar_IdEENS_6detail9VectorRefENSC_9OpaqueRefENS_10MediaFrameEEE5indexEv(ptr noundef nonnull align 8 dereferenceable(104) %15) #3
  %17 = call noundef nonnull align 8 dereferenceable(8) ptr @_ZN2cv4gapi4s11n6detail5put_vINS_4util7variantIJNS_4UMatENS_4RMatESt10shared_ptrINS0_3wip13IStreamSourceEENS_3MatENS_7Scalar_IdEENS_6detail9VectorRefENSF_9OpaqueRefENS_10MediaFrameEEEES6_JS7_SB_SC_SE_SG_SH_SI_EEERNS1_8IOStreamESL_RKT_m(ptr noundef nonnull align 8 dereferenceable(8) %13, ptr noundef nonnull align 8 dereferenceable(104) %14, i64 noundef %16)
  ret ptr %17
}

; Function Attrs: mustprogress uwtable
define noundef nonnull align 8 dereferenceable(8) ptr @_ZN2cv4gapi4s11nlsERNS1_8IOStreamERKNS_5gimpl10ConstValueE(ptr noundef nonnull align 8 dereferenceable(8) %0, ptr noundef nonnull align 8 dereferenceable(160) %1) #4 {
  %3 = alloca ptr, align 8
  %4 = alloca ptr, align 8
  store ptr %0, ptr %3, align 8, !tbaa !3
  store ptr %1, ptr %4, align 8, !tbaa !254
  %5 = load ptr, ptr %3, align 8, !tbaa !3
  %6 = load ptr, ptr %4, align 8, !tbaa !254
  %7 = getelementptr inbounds nuw %"struct.cv::gimpl::ConstValue", ptr %6, i32 0, i32 0
  %8 = call noundef nonnull align 8 dereferenceable(8) ptr @_ZN2cv4gapi4s11nlsIJNS_4UMatENS_4RMatESt10shared_ptrINS0_3wip13IStreamSourceEENS_3MatENS_7Scalar_IdEENS_6detail9VectorRefENSC_9OpaqueRefENS_10MediaFrameEEEERNS1_8IOStreamESH_RKNS_4util7variantIJDpT_EEE(ptr noundef nonnull align 8 dereferenceable(8) %5, ptr noundef nonnull align 8 dereferenceable(104) %7)
  ret ptr %8
}