; Function Attrs: mustprogress uwtable
define noundef nonnull align 8 dereferenceable(8) ptr @_ZN2cv4gapi4s11nlsERNS1_8IOStreamERKNS_5gimpl10ConstValueE(ptr noundef nonnull align 8 dereferenceable(8) %0, ptr noundef nonnull align 8 dereferenceable(160) %1) local_unnamed_addr #3 {
  %3 = load i64, ptr %1, align 8, !tbaa !315
  %4 = trunc i64 %3 to i32
  %5 = load ptr, ptr %0, align 8, !tbaa !8
  %6 = getelementptr inbounds nuw i8, ptr %5, i64 64
  %7 = load ptr, ptr %6, align 8
  %8 = tail call noundef nonnull align 8 dereferenceable(8) ptr %7(ptr noundef nonnull align 8 dereferenceable(8) %0, i32 noundef %4)
  %9 = load i64, ptr %1, align 8, !tbaa !315
  %10 = tail call noundef nonnull align 8 dereferenceable(8) ptr @_ZN2cv4gapi4s11n6detail5put_vINS_4util7variantIJNS_4UMatENS_4RMatESt10shared_ptrINS0_3wip13IStreamSourceEENS_3MatENS_7Scalar_IdEENS_6detail9VectorRefENSF_9OpaqueRefENS_10MediaFrameEEEES6_JS7_SB_SC_SE_SG_SH_SI_EEERNS1_8IOStreamESL_RKT_m(ptr noundef nonnull align 8 dereferenceable(8) %0, ptr noundef nonnull align 8 dereferenceable(104) %1, i64 noundef %9)
  ret ptr %10
}